Certificate:
    Data:
        Version: 3 (0x2)
        Serial Number: 2 (0x2)
        Signature Algorithm: sha256WithRSAEncryption
        Issuer: C=CN, ST=Shandong, L=Linyi, O=AHU, CN=DEVILcong/emailAddress=liangyuecong@sina.com
        Validity
            Not Before: Nov 26 11:26:58 2020 GMT
            Not After : Nov 26 11:26:58 2021 GMT
        Subject: C=CN, ST=Shandong, O=AHU, CN=DEVILcong2/emailAddress=liangyuecong@sina.com
        Subject Public Key Info:
            Public Key Algorithm: rsaEncryption
                RSA Public-Key: (4096 bit)
                Modulus:
                    00:e7:a7:60:f9:81:22:e0:46:ea:63:64:3b:e1:69:
                    7d:9d:82:97:c6:75:e4:0f:8a:f5:2d:f3:09:12:b1:
                    3d:0e:9a:70:98:19:57:74:96:f0:fe:69:5a:1b:34:
                    f9:10:af:bd:a1:e0:df:9c:87:1f:c0:d5:64:a2:de:
                    07:58:58:73:21:c6:99:42:85:48:93:44:b4:d4:6b:
                    3f:34:72:c9:6c:9b:40:fb:cd:34:fc:e9:d7:2f:b5:
                    f2:1f:98:44:11:71:29:fa:61:b8:19:8a:c3:f7:4b:
                    0b:01:dd:e2:e8:c1:79:22:40:1b:69:0b:d4:9a:fe:
                    c7:ba:bc:3b:44:55:b8:34:c5:f7:eb:09:49:9c:e4:
                    93:58:d8:6b:36:93:95:a6:07:a5:b4:e5:9b:c9:89:
                    94:2e:c5:a1:5a:4e:23:d7:a8:47:d6:8e:00:1d:79:
                    40:03:12:de:14:45:b7:c2:f4:64:ea:80:e4:03:e1:
                    e6:aa:d4:e2:d8:9f:53:61:9d:a1:a1:ae:c3:10:9b:
                    41:56:a8:1b:42:38:fe:f8:c7:a0:3a:05:05:e3:f1:
                    a7:b5:25:b9:65:f7:72:3c:0d:a6:4e:f9:12:bf:41:
                    3f:fc:df:b6:4c:53:62:01:bd:7c:ca:8c:09:6c:72:
                    40:18:5d:c8:fb:7d:23:68:bd:6b:75:ba:0e:d9:b7:
                    28:71:98:24:b4:55:f1:fc:1f:14:73:1a:6f:b5:14:
                    a2:e2:4b:9e:6b:d5:f0:73:ca:36:0f:43:c0:38:9f:
                    8e:52:04:ea:22:78:bd:63:d8:a3:fe:7a:3c:36:52:
                    a8:6a:a9:d9:6d:67:2f:97:09:0c:93:f8:04:f3:98:
                    bf:cb:48:03:02:6e:93:26:c2:b6:ed:eb:49:2b:d0:
                    d4:26:45:1a:5c:b1:68:26:02:19:27:d7:1f:bc:18:
                    67:80:ff:ea:7f:c6:c6:33:dd:09:f9:d9:48:31:3f:
                    fe:5c:f0:42:aa:ea:e1:14:b4:e8:6d:92:f1:7a:9f:
                    90:4f:ee:cf:6b:1a:ba:f3:09:c0:e9:86:e9:97:ec:
                    9c:45:38:2b:20:43:5f:8e:0a:27:96:43:3e:c7:95:
                    6c:92:e0:1c:59:5c:14:e3:6e:bb:f6:a7:52:0f:a6:
                    7e:79:a7:97:a9:d6:82:95:ee:ad:13:6f:00:f6:0d:
                    47:b0:1d:76:5e:74:ed:2b:08:b7:17:91:5f:ea:0f:
                    96:e4:4d:26:44:5a:80:34:a9:95:28:8b:11:25:48:
                    2b:9f:2a:16:28:0e:62:fd:ae:6f:71:b3:1f:fd:35:
                    dd:fd:da:0c:45:cf:b8:9d:8d:87:c0:9d:6e:2b:19:
                    e6:a7:98:85:24:f7:10:a1:08:71:7e:64:2f:15:02:
                    43:01:37
                Exponent: 65537 (0x10001)
        X509v3 extensions:
            X509v3 Basic Constraints: 
                CA:FALSE
            Netscape Comment: 
                OpenSSL Generated Certificate
            X509v3 Subject Key Identifier: 
                DF:10:56:FF:0F:7B:D7:65:F4:B2:BE:AC:69:DC:96:C7:3B:18:DB:02
            X509v3 Authority Key Identifier: 
                keyid:33:B8:5C:A8:3A:C4:89:01:32:89:0F:DA:BD:D2:9A:D3:E2:35:0D:10

    Signature Algorithm: sha256WithRSAEncryption
         3f:c1:fd:fd:63:48:17:56:a8:c2:44:3f:bd:1d:31:55:17:86:
         31:e9:96:57:6e:19:b7:2a:e4:ef:4c:7e:0e:ee:18:96:08:e5:
         9f:ce:d7:f3:1b:99:59:dc:2c:8b:db:ae:93:64:c9:4d:91:25:
         78:7e:47:7d:0c:11:d3:7d:66:42:9b:19:1d:fe:c0:aa:ef:21:
         bf:4f:c9:55:44:94:15:98:8b:3e:99:da:3f:a5:f6:44:fc:c3:
         11:4b:2e:0d:c2:0c:71:84:c5:6e:68:75:b4:0a:1b:85:6f:b5:
         34:ee:6a:eb:8e:bd:61:82:19:f3:78:16:36:88:34:36:7b:b7:
         9b:97:00:0c:78:f6:39:21:22:5d:c5:ae:51:44:88:d9:d4:0b:
         a2:8b:d1:65:70:ae:89:f6:24:24:32:01:b5:e9:3b:f1:b2:10:
         98:7e:c9:a3:4e:f3:8a:4c:18:39:13:c6:d4:11:bd:82:19:eb:
         4c:fd:50:15:62:53:ce:17:77:67:e3:76:bd:02:54:3c:d9:66:
         f2:b7:3c:77:52:7e:2b:76:f4:dc:24:1a:df:1f:60:e2:18:3c:
         ce:bb:10:59:80:15:bd:9e:72:f4:75:02:3e:9c:33:59:72:17:
         80:41:17:47:7c:7b:a2:c5:e8:ea:0e:4c:cd:8e:ae:f1:a9:da:
         fd:c7:30:cb
-----BEGIN CERTIFICATE-----
MIIE1zCCA7+gAwIBAgIBAjANBgkqhkiG9w0BAQsFADB4MQswCQYDVQQGEwJDTjER
MA8GA1UECAwIU2hhbmRvbmcxDjAMBgNVBAcMBUxpbnlpMQwwCgYDVQQKDANBSFUx
EjAQBgNVBAMMCURFVklMY29uZzEkMCIGCSqGSIb3DQEJARYVbGlhbmd5dWVjb25n
QHNpbmEuY29tMB4XDTIwMTEyNjExMjY1OFoXDTIxMTEyNjExMjY1OFowaTELMAkG
A1UEBhMCQ04xETAPBgNVBAgMCFNoYW5kb25nMQwwCgYDVQQKDANBSFUxEzARBgNV
BAMMCkRFVklMY29uZzIxJDAiBgkqhkiG9w0BCQEWFWxpYW5neXVlY29uZ0BzaW5h
LmNvbTCCAiIwDQYJKoZIhvcNAQEBBQADggIPADCCAgoCggIBAOenYPmBIuBG6mNk
O+FpfZ2Cl8Z15A+K9S3zCRKxPQ6acJgZV3SW8P5pWhs0+RCvvaHg35yHH8DVZKLe
B1hYcyHGmUKFSJNEtNRrPzRyyWybQPvNNPzp1y+18h+YRBFxKfphuBmKw/dLCwHd
4ujBeSJAG2kL1Jr+x7q8O0RVuDTF9+sJSZzkk1jYazaTlaYHpbTlm8mJlC7FoVpO
I9eoR9aOAB15QAMS3hRFt8L0ZOqA5APh5qrU4tifU2GdoaGuwxCbQVaoG0I4/vjH
oDoFBePxp7UluWX3cjwNpk75Er9BP/zftkxTYgG9fMqMCWxyQBhdyPt9I2i9a3W6
Dtm3KHGYJLRV8fwfFHMab7UUouJLnmvV8HPKNg9DwDifjlIE6iJ4vWPYo/56PDZS
qGqp2W1nL5cJDJP4BPOYv8tIAwJukybCtu3rSSvQ1CZFGlyxaCYCGSfXH7wYZ4D/
6n/GxjPdCfnZSDE//lzwQqrq4RS06G2S8XqfkE/uz2sauvMJwOmG6ZfsnEU4KyBD
X44KJ5ZDPseVbJLgHFlcFONuu/anUg+mfnmnl6nWgpXurRNvAPYNR7Addl507SsI
txeRX+oPluRNJkRagDSplSiLESVIK58qFigOYv2ub3GzH/013f3aDEXPuJ2Nh8Cd
bisZ5qeYhST3EKEIcX5kLxUCQwE3AgMBAAGjezB5MAkGA1UdEwQCMAAwLAYJYIZI
AYb4QgENBB8WHU9wZW5TU0wgR2VuZXJhdGVkIENlcnRpZmljYXRlMB0GA1UdDgQW
BBTfEFb/D3vXZfSyvqxp3JbHOxjbAjAfBgNVHSMEGDAWgBQzuFyoOsSJATKJD9q9
0prT4jUNEDANBgkqhkiG9w0BAQsFAAOCAQEAP8H9/WNIF1aowkQ/vR0xVReGMemW
V24Ztyrk70x+Du4Ylgjln87X8xuZWdwsi9uuk2TJTZEleH5HfQwR031mQpsZHf7A
qu8hv0/JVUSUFZiLPpnaP6X2RPzDEUsuDcIMcYTFbmh1tAobhW+1NO5q6469YYIZ
83gWNog0Nnu3m5cADHj2OSEiXcWuUUSI2dQLoovRZXCuifYkJDIBtek78bIQmH7J
o07zikwYORPG1BG9ghnrTP1QFWJTzhd3Z+N2vQJUPNlm8rc8d1J+K3b03CQa3x9g
4hg8zrsQWYAVvZ5y9HUCPpwzWXIXgEEXR3x7osXo6g5MzY6u8ana/ccwyw==
-----END CERTIFICATE-----
